target datalayout = "e-m:e-p270:32:32-p271:32:32-p272:64:64-i64:64-i128:128-f80:128-n8:16:32:64-S128"
target triple = "x86_64-pc-linux-gnu"

@giop_desegment = internal global i8 1, align 1
@.str.567 = private unnamed_addr constant [5 x i8] c"ZIOP\00", align 1

; Function Attrs: null_pointer_is_valid sspstrong uwtable
define internal i32 @dissect_giop_tcp(ptr noundef %0, ptr noundef %1, ptr noundef %2, ptr noundef %3) #0 {
  %5 = alloca i32, align 4
  %6 = alloca ptr, align 8
  %7 = alloca ptr, align 8
  %8 = alloca ptr, align 8
  %9 = alloca ptr, align 8
  store ptr %0, ptr %6, align 8
  store ptr %1, ptr %7, align 8
  store ptr %2, ptr %8, align 8
  store ptr %3, ptr %9, align 8
  %10 = load ptr, ptr %6, align 8
  %11 = call i32 @tvb_get_ntohl(ptr noundef %10, i32 noundef 0)
  %12 = icmp ne i32 %11, 1195986768
  br i1 %12, label %13, label %27

13:                                               ; preds = %4
  %14 = load ptr, ptr %6, align 8
  %15 = call i32 @tvb_memeql(ptr noundef %14, i32 noundef 0, ptr noundef @.str.567, i64 noundef 4)
  %16 = icmp eq i32 %15, 0
  br i1 %16, label %17, label %24

17:                                               ; preds = %13
  %18 = load ptr, ptr %6, align 8
  %19 = load ptr, ptr %7, align 8
  %20 = load ptr, ptr %8, align 8
  %21 = call zeroext i1 @dissect_ziop_heur(ptr noundef %18, ptr noundef %19, ptr noundef %20, ptr noundef null)
  br i1 %21, label %23, label %22

22:                                               ; preds = %17
  store i32 0, ptr %5, align 4
  br label %36

23:                                               ; preds = %17
  br label %24

24:                                               ; preds = %23, %13
  %25 = load ptr, ptr %6, align 8
  %26 = call i32 @tvb_captured_length(ptr noundef %25)
  store i32 %26, ptr %5, align 4
  br label %36

27:                                               ; preds = %4
  %28 = load ptr, ptr %6, align 8
  %29 = load ptr, ptr %7, align 8
  %30 = load ptr, ptr %8, align 8
  %31 = load i8, ptr @giop_desegment, align 1, !range !8, !noundef !9
  %32 = trunc i8 %31 to i1
  %33 = load ptr, ptr %9, align 8
  call void @tcp_dissect_pdus(ptr noundef %28, ptr noundef %29, ptr noundef %30, i1 noundef zeroext %32, i32 noundef 12, ptr noundef @get_giop_pdu_len, ptr noundef @dissect_giop_common, ptr noundef %33)
  %34 = load ptr, ptr %6, align 8
  %35 = call i32 @tvb_captured_length(ptr noundef %34)
  store i32 %35, ptr %5, align 4
  br label %36

36:                                               ; preds = %27, %24, %22
  %37 = load i32, ptr %5, align 4
  ret i32 %37
}