; Function Attrs: null_pointer_is_valid sspstrong uwtable
define internal i32 @dissect_giop_tcp(ptr noundef %0, ptr noundef %1, ptr noundef %2, ptr noundef %3) #0 {
  %5 = tail call i32 @tvb_get_ntohl(ptr noundef %0, i32 noundef 0)
  %.not = icmp eq i32 %5, 1195986768
  br i1 %.not, label %11, label %6

6:                                                ; preds = %4
  %7 = tail call i32 @tvb_memeql(ptr noundef %0, i32 noundef 0, ptr noundef nonnull @.str.567, i64 noundef 4)
  %8 = icmp eq i32 %7, 0
  br i1 %8, label %9, label %.sink.split

9:                                                ; preds = %6
  %10 = tail call zeroext i1 @dissect_ziop_heur(ptr noundef %0, ptr noundef %1, ptr noundef %2, ptr noundef null)
  br i1 %10, label %.sink.split, label %15

11:                                               ; preds = %4
  %12 = load i8, ptr @giop_desegment, align 1, !range !29, !noundef !30
  %13 = trunc nuw i8 %12 to i1
  tail call void @tcp_dissect_pdus(ptr noundef %0, ptr noundef %1, ptr noundef %2, i1 noundef zeroext %13, i32 noundef 12, ptr noundef nonnull @get_giop_pdu_len, ptr noundef nonnull @dissect_giop_common, ptr noundef %3)
  br label %.sink.split

.sink.split:                                      ; preds = %6, %9, %11
  %14 = tail call i32 @tvb_captured_length(ptr noundef %0)
  br label %15

15:                                               ; preds = %.sink.split, %9
  %.0 = phi i32 [ 0, %9 ], [ %14, %.sink.split ]
  ret i32 %.0
}